target datalayout = "e-m:e-p270:32:32-p271:32:32-p272:64:64-i64:64-i128:128-f80:128-n8:16:32:64-S128"
target triple = "x86_64-pc-linux-gnu"

@SDL_gamepad_event_list = internal constant [10 x i32] [i32 1616, i32 1617, i32 1618, i32 1619, i32 1620, i32 1621, i32 1622, i32 1623, i32 1624, i32 1625], align 16

; Function Attrs: nounwind uwtable
define hidden zeroext i1 @SDL_GamepadEventsEnabled_REAL() #0 {
  %1 = alloca i8, align 1
  %2 = alloca i32, align 4
  call void @llvm.lifetime.start.p0(i64 1, ptr %1) #8
  store i8 0, ptr %1, align 1
  call void @llvm.lifetime.start.p0(i64 4, ptr %2) #8
  store i32 0, ptr %2, align 4
  br label %3

3:                                                ; preds = %18, %0
  %4 = load i32, ptr %2, align 4
  %5 = zext i32 %4 to i64
  %6 = icmp ult i64 %5, 10
  br i1 %6, label %7, label %21

7:                                                ; preds = %3
  %8 = load i32, ptr %2, align 4
  %9 = zext i32 %8 to i64
  %10 = getelementptr inbounds nuw [10 x i32], ptr @SDL_gamepad_event_list, i64 0, i64 %9
  %11 = load i32, ptr %10, align 4
  %12 = call zeroext i1 @SDL_EventEnabled_REAL(i32 noundef %11)
  %13 = zext i1 %12 to i8
  store i8 %13, ptr %1, align 1
  %14 = load i8, ptr %1, align 1, !range !3, !noundef !4
  %15 = trunc i8 %14 to i1
  br i1 %15, label %16, label %17

16:                                               ; preds = %7
  br label %21

17:                                               ; preds = %7
  br label %18

18:                                               ; preds = %17
  %19 = load i32, ptr %2, align 4
  %20 = add i32 %19, 1
  store i32 %20, ptr %2, align 4
  br label %3, !llvm.loop !52

21:                                               ; preds = %16, %3
  %22 = load i8, ptr %1, align 1, !range !3, !noundef !4
  %23 = trunc i8 %22 to i1
  call void @llvm.lifetime.end.p0(i64 4, ptr %2) #8
  call void @llvm.lifetime.end.p0(i64 1, ptr %1) #8
  ret i1 %23
}