; Function Attrs: nounwind uwtable
define hidden zeroext i1 @SDL_GamepadEventsEnabled_REAL() local_unnamed_addr #0 {
  br label %1

1:                                                ; preds = %1, %0
  %indvars.iv = phi i64 [ 0, %0 ], [ %indvars.iv.next, %1 ]
  %2 = getelementptr inbounds nuw [10 x i32], ptr @SDL_gamepad_event_list, i64 0, i64 %indvars.iv
  %3 = load i32, ptr %2, align 4
  %4 = tail call zeroext i1 @SDL_EventEnabled_REAL(i32 noundef %3) #10
  %indvars.iv.next = add nuw nsw i64 %indvars.iv, 1
  %exitcond.not = icmp eq i64 %indvars.iv.next, 10
  %or.cond = select i1 %4, i1 true, i1 %exitcond.not
  br i1 %or.cond, label %5, label %1, !llvm.loop !61

5:                                                ; preds = %1
  ret i1 %4
}